target datalayout = "e-m:e-p270:32:32-p271:32:32-p272:64:64-i64:64-i128:128-f80:128-n8:16:32:64-S128"
target triple = "x86_64-unknown-linux-gnu"

%"class.std::__cxx11::basic_string" = type { %"struct.std::__cxx11::basic_string<char>::_Alloc_hider", i64, %union.anon }
%"struct.std::__cxx11::basic_string<char>::_Alloc_hider" = type { ptr }
%union.anon = type { i64, [8 x i8] }
%"class.struct_pb::compiler::FieldGenerator" = type { ptr, %"class.struct_pb::compiler::GeneratorBase", ptr }
%"class.struct_pb::compiler::GeneratorBase" = type { %struct.Options }
%struct.Options = type { i8, %"class.std::__cxx11::basic_string", ptr }
%"class.google::protobuf::FieldDescriptor" = type { ptr, ptr, ptr, ptr, ptr, ptr, ptr, i32, i32, i8, i8, i8, i8, i32, i32, ptr, ptr, ptr, ptr, ptr, ptr, ptr, ptr, %union.anon.3 }
%union.anon.3 = type { i64 }
%"class.std::allocator.0" = type { i8 }
%class.anon = type { ptr, ptr }
%"struct.std::once_flag::_Prepare_execution" = type { i8 }
%"struct.std::once_flag" = type { i32 }
%class.anon.17 = type { i8 }

@_ZSt15__once_callable = external thread_local global ptr, align 8
@_ZSt11__once_call = external thread_local global ptr, align 8
@_ZN6google8protobuf15FieldDescriptor11kTypeToNameE = external constant [19 x ptr], align 16

; Function Attrs: mustprogress nounwind uwtable
define internal noundef i32 @_ZL18__gthread_active_pv() #5 {
entry:
  ret i32 1
}

; Function Attrs: mustprogress nounwind uwtable
define linkonce_odr dso_local noundef ptr @_ZZNSt9once_flag18_Prepare_executionC1IZSt9call_onceIPFvPKN6google8protobuf15FieldDescriptorEEJS7_EEvRS_OT_DpOT0_EUlvE_EERSB_ENKUlvE_cvPFvvEEv(ptr noundef nonnull align 1 dereferenceable(1) %this) #5 comdat align 2 {
entry:
  %this.addr = alloca ptr, align 8
  store ptr %this, ptr %this.addr, align 8
  ret ptr @_ZZNSt9once_flag18_Prepare_executionC1IZSt9call_onceIPFvPKN6google8protobuf15FieldDescriptorEEJS7_EEvRS_OT_DpOT0_EUlvE_EERSB_ENUlvE_8__invokeEv
}

; Function Attrs: mustprogress nounwind uwtable
define linkonce_odr dso_local void @_ZNSt9once_flag18_Prepare_executionD2Ev(ptr noundef nonnull align 1 dereferenceable(1) %this) unnamed_addr #5 comdat align 2 {
entry:
  %this.addr = alloca ptr, align 8
  store ptr %this, ptr %this.addr, align 8
  %0 = call align 8 ptr @llvm.threadlocal.address.p0(ptr align 8 @_ZSt15__once_callable)
  store ptr null, ptr %0, align 8
  %1 = call align 8 ptr @llvm.threadlocal.address.p0(ptr align 8 @_ZSt11__once_call)
  store ptr null, ptr %1, align 8
  ret void
}

; Function Attrs: mustprogress uwtable
define internal noundef i32 @_ZL14__gthread_oncePiPFvvE(ptr noundef %__once, ptr noundef %__func) #4 {
entry:
  %retval = alloca i32, align 4
  %__once.addr = alloca ptr, align 8
  %__func.addr = alloca ptr, align 8
  store ptr %__once, ptr %__once.addr, align 8
  store ptr %__func, ptr %__func.addr, align 8
  %call = call noundef i32 @_ZL18__gthread_active_pv()
  %tobool = icmp ne i32 %call, 0
  br i1 %tobool, label %if.then, label %if.else

if.then:                                          ; preds = %entry
  %0 = load ptr, ptr %__once.addr, align 8
  %1 = load ptr, ptr %__func.addr, align 8
  %call1 = call i32 @pthread_once(ptr noundef %0, ptr noundef %1)
  store i32 %call1, ptr %retval, align 4
  br label %return

if.else:                                          ; preds = %entry
  store i32 -1, ptr %retval, align 4
  br label %return

return:                                           ; preds = %if.else, %if.then
  %2 = load i32, ptr %retval, align 4
  ret i32 %2
}

; Function Attrs: mustprogress nounwind uwtable
define linkonce_odr dso_local void @_ZNSt9once_flag18_Prepare_executionC2IZSt9call_onceIPFvPKN6google8protobuf15FieldDescriptorEEJS7_EEvRS_OT_DpOT0_EUlvE_EERSB_(ptr noundef nonnull align 1 dereferenceable(1) %this, ptr noundef nonnull align 8 dereferenceable(16) %__c) unnamed_addr #5 comdat align 2 {
entry:
  %this.addr = alloca ptr, align 8
  %__c.addr = alloca ptr, align 8
  %ref.tmp = alloca %class.anon.17, align 1
  store ptr %this, ptr %this.addr, align 8
  store ptr %__c, ptr %__c.addr, align 8
  %0 = load ptr, ptr %__c.addr, align 8
  %1 = call align 8 ptr @llvm.threadlocal.address.p0(ptr align 8 @_ZSt15__once_callable)
  store ptr %0, ptr %1, align 8
  %call = call noundef ptr @_ZZNSt9once_flag18_Prepare_executionC1IZSt9call_onceIPFvPKN6google8protobuf15FieldDescriptorEEJS7_EEvRS_OT_DpOT0_EUlvE_EERSB_ENKUlvE_cvPFvvEEv(ptr noundef nonnull align 1 dereferenceable(1) %ref.tmp) #3
  %2 = call align 8 ptr @llvm.threadlocal.address.p0(ptr align 8 @_ZSt11__once_call)
  store ptr %call, ptr %2, align 8
  ret void
}

; Function Attrs: mustprogress uwtable
define linkonce_odr dso_local void @_ZSt9call_onceIPFvPKN6google8protobuf15FieldDescriptorEEJS4_EEvRSt9once_flagOT_DpOT0_(ptr noundef nonnull align 4 dereferenceable(4) %__once, ptr noundef nonnull align 8 dereferenceable(8) %__f, ptr noundef nonnull align 8 dereferenceable(8) %__args) #4 comdat personality ptr @__gxx_personality_v0 {
entry:
  %__once.addr = alloca ptr, align 8
  %__f.addr = alloca ptr, align 8
  %__args.addr = alloca ptr, align 8
  %__callable = alloca %class.anon, align 8
  %__exec = alloca %"struct.std::once_flag::_Prepare_execution", align 1
  %__e = alloca i32, align 4
  %exn.slot = alloca ptr, align 8
  %ehselector.slot = alloca i32, align 4
  store ptr %__once, ptr %__once.addr, align 8
  store ptr %__f, ptr %__f.addr, align 8
  store ptr %__args, ptr %__args.addr, align 8
  %0 = getelementptr inbounds %class.anon, ptr %__callable, i32 0, i32 0
  %1 = load ptr, ptr %__f.addr, align 8
  store ptr %1, ptr %0, align 8
  %2 = getelementptr inbounds %class.anon, ptr %__callable, i32 0, i32 1
  %3 = load ptr, ptr %__args.addr, align 8
  store ptr %3, ptr %2, align 8
  call void @_ZNSt9once_flag18_Prepare_executionC2IZSt9call_onceIPFvPKN6google8protobuf15FieldDescriptorEEJS7_EEvRS_OT_DpOT0_EUlvE_EERSB_(ptr noundef nonnull align 1 dereferenceable(1) %__exec, ptr noundef nonnull align 8 dereferenceable(16) %__callable)
  %4 = load ptr, ptr %__once.addr, align 8
  %_M_once = getelementptr inbounds %"struct.std::once_flag", ptr %4, i32 0, i32 0
  %call = invoke noundef i32 @_ZL14__gthread_oncePiPFvvE(ptr noundef %_M_once, ptr noundef @__once_proxy)
          to label %invoke.cont unwind label %lpad

invoke.cont:                                      ; preds = %entry
  store i32 %call, ptr %__e, align 4
  %5 = load i32, ptr %__e, align 4
  %tobool = icmp ne i32 %5, 0
  br i1 %tobool, label %if.then, label %if.end

if.then:                                          ; preds = %invoke.cont
  %6 = load i32, ptr %__e, align 4
  invoke void @_ZSt20__throw_system_errori(i32 noundef %6) #16
          to label %invoke.cont1 unwind label %lpad

invoke.cont1:                                     ; preds = %if.then
  unreachable

lpad:                                             ; preds = %if.then, %entry
  %7 = landingpad { ptr, i32 }
          cleanup
  %8 = extractvalue { ptr, i32 } %7, 0
  store ptr %8, ptr %exn.slot, align 8
  %9 = extractvalue { ptr, i32 } %7, 1
  store i32 %9, ptr %ehselector.slot, align 4
  call void @_ZNSt9once_flag18_Prepare_executionD2Ev(ptr noundef nonnull align 1 dereferenceable(1) %__exec) #3
  br label %eh.resume

if.end:                                           ; preds = %invoke.cont
  call void @_ZNSt9once_flag18_Prepare_executionD2Ev(ptr noundef nonnull align 1 dereferenceable(1) %__exec) #3
  ret void

eh.resume:                                        ; preds = %lpad
  %exn = load ptr, ptr %exn.slot, align 8
  %sel = load i32, ptr %ehselector.slot, align 4
  %lpad.val = insertvalue { ptr, i32 } poison, ptr %exn, 0
  %lpad.val2 = insertvalue { ptr, i32 } %lpad.val, i32 %sel, 1
  resume { ptr, i32 } %lpad.val2
}

; Function Attrs: mustprogress uwtable
define linkonce_odr dso_local void @_ZN6google8protobuf8internal9call_onceIJRSt9once_flagPFvPKNS0_15FieldDescriptorEES7_EEEvDpOT_(ptr noundef nonnull align 4 dereferenceable(4) %args, ptr noundef nonnull align 8 dereferenceable(8) %args1, ptr noundef nonnull align 8 dereferenceable(8) %args3) #4 comdat {
entry:
  %args.addr = alloca ptr, align 8
  %args.addr2 = alloca ptr, align 8
  %args.addr4 = alloca ptr, align 8
  store ptr %args, ptr %args.addr, align 8
  store ptr %args1, ptr %args.addr2, align 8
  store ptr %args3, ptr %args.addr4, align 8
  %0 = load ptr, ptr %args.addr, align 8
  %1 = load ptr, ptr %args.addr2, align 8
  %2 = load ptr, ptr %args.addr4, align 8
  call void @_ZSt9call_onceIPFvPKN6google8protobuf15FieldDescriptorEEJS4_EEvRSt9once_flagOT_DpOT0_(ptr noundef nonnull align 4 dereferenceable(4) %0, ptr noundef nonnull align 8 dereferenceable(8) %1, ptr noundef nonnull align 8 dereferenceable(8) %2)
  ret void
}

; Function Attrs: mustprogress uwtable
define linkonce_odr dso_local noundef i32 @_ZNK6google8protobuf15FieldDescriptor4typeEv(ptr noundef nonnull align 8 dereferenceable(152) %this) #4 comdat align 2 {
entry:
  %this.addr = alloca ptr, align 8
  %ref.tmp = alloca ptr, align 8
  %ref.tmp3 = alloca ptr, align 8
  store ptr %this, ptr %this.addr, align 8
  %this1 = load ptr, ptr %this.addr, align 8
  %type_once_ = getelementptr inbounds %"class.google::protobuf::FieldDescriptor", ptr %this1, i32 0, i32 6
  %0 = load ptr, ptr %type_once_, align 8
  %tobool = icmp ne ptr %0, null
  br i1 %tobool, label %if.then, label %if.end

if.then:                                          ; preds = %entry
  %type_once_2 = getelementptr inbounds %"class.google::protobuf::FieldDescriptor", ptr %this1, i32 0, i32 6
  %1 = load ptr, ptr %type_once_2, align 8
  store ptr @_ZN6google8protobuf15FieldDescriptor12TypeOnceInitEPKS1_, ptr %ref.tmp, align 8
  store ptr %this1, ptr %ref.tmp3, align 8
  call void @_ZN6google8protobuf8internal9call_onceIJRSt9once_flagPFvPKNS0_15FieldDescriptorEES7_EEEvDpOT_(ptr noundef nonnull align 4 dereferenceable(4) %1, ptr noundef nonnull align 8 dereferenceable(8) %ref.tmp, ptr noundef nonnull align 8 dereferenceable(8) %ref.tmp3)
  br label %if.end

if.end:                                           ; preds = %if.then, %entry
  %type_ = getelementptr inbounds %"class.google::protobuf::FieldDescriptor", ptr %this1, i32 0, i32 7
  %2 = load i32, ptr %type_, align 8
  ret i32 %2
}

; Function Attrs: mustprogress uwtable
define linkonce_odr dso_local noundef ptr @_ZNK6google8protobuf15FieldDescriptor9type_nameEv(ptr noundef nonnull align 8 dereferenceable(152) %this) #4 comdat align 2 {
entry:
  %this.addr = alloca ptr, align 8
  store ptr %this, ptr %this.addr, align 8
  %this1 = load ptr, ptr %this.addr, align 8
  %call = call noundef i32 @_ZNK6google8protobuf15FieldDescriptor4typeEv(ptr noundef nonnull align 8 dereferenceable(152) %this1)
  %idxprom = zext i32 %call to i64
  %arrayidx = getelementptr inbounds [19 x ptr], ptr @_ZN6google8protobuf15FieldDescriptor11kTypeToNameE, i64 0, i64 %idxprom
  %0 = load ptr, ptr %arrayidx, align 8
  ret ptr %0
}

; Function Attrs: mustprogress uwtable
define dso_local void @_ZNK9struct_pb8compiler19OneofFieldGenerator12pb_type_nameB5cxx11Ev(ptr noalias sret(%"class.std::__cxx11::basic_string") align 8 %agg.result, ptr noundef nonnull align 8 dereferenceable(64) %this) unnamed_addr #4 align 2 personality ptr @__gxx_personality_v0 {
entry:
  %result.ptr = alloca ptr, align 8
  %this.addr = alloca ptr, align 8
  %ref.tmp = alloca %"class.std::allocator.0", align 1
  %exn.slot = alloca ptr, align 8
  %ehselector.slot = alloca i32, align 4
  store ptr %agg.result, ptr %result.ptr, align 8
  store ptr %this, ptr %this.addr, align 8
  %this1 = load ptr, ptr %this.addr, align 8
  %d_ = getelementptr inbounds %"class.struct_pb::compiler::FieldGenerator", ptr %this1, i32 0, i32 2
  %0 = load ptr, ptr %d_, align 8
  %call = call noundef ptr @_ZNK6google8protobuf15FieldDescriptor9type_nameEv(ptr noundef nonnull align 8 dereferenceable(152) %0)
  call void @_ZNSaIcEC1Ev(ptr noundef nonnull align 1 dereferenceable(1) %ref.tmp) #3
  invoke void @_ZNSt7__cxx1112basic_stringIcSt11char_traitsIcESaIcEEC2IS3_EEPKcRKS3_(ptr noundef nonnull align 8 dereferenceable(32) %agg.result, ptr noundef %call, ptr noundef nonnull align 1 dereferenceable(1) %ref.tmp)
          to label %invoke.cont unwind label %lpad

invoke.cont:                                      ; preds = %entry
  call void @_ZNSaIcED1Ev(ptr noundef nonnull align 1 dereferenceable(1) %ref.tmp) #3
  ret void

lpad:                                             ; preds = %entry
  %1 = landingpad { ptr, i32 }
          cleanup
  %2 = extractvalue { ptr, i32 } %1, 0
  store ptr %2, ptr %exn.slot, align 8
  %3 = extractvalue { ptr, i32 } %1, 1
  store i32 %3, ptr %ehselector.slot, align 4
  call void @_ZNSaIcED1Ev(ptr noundef nonnull align 1 dereferenceable(1) %ref.tmp) #3
  br label %eh.resume

eh.resume:                                        ; preds = %lpad
  %exn = load ptr, ptr %exn.slot, align 8
  %sel = load i32, ptr %ehselector.slot, align 4
  %lpad.val = insertvalue { ptr, i32 } poison, ptr %exn, 0
  %lpad.val2 = insertvalue { ptr, i32 } %lpad.val, i32 %sel, 1
  resume { ptr, i32 } %lpad.val2
}